target datalayout = "e-m:e-p270:32:32-p271:32:32-p272:64:64-i64:64-i128:128-f80:128-n8:16:32:64-S128"
target triple = "x86_64-pc-linux-gnu"

%"class.DFSRndNumGenerator::SearchState" = type { i8, i32, i32, i32 }
%class.DFSRndNumGenerator = type { %class.AbsRndNumGenerator, %"class.std::__cxx11::basic_string", i32, i32, i8, ptr, i8, %"class.std::vector" }
%class.AbsRndNumGenerator = type { ptr }
%"class.std::__cxx11::basic_string" = type { %"struct.std::__cxx11::basic_string<char>::_Alloc_hider", i64, %union.anon }
%"struct.std::__cxx11::basic_string<char>::_Alloc_hider" = type { ptr }
%union.anon = type { i64, [8 x i8] }
%"class.std::vector" = type { %"struct.std::_Vector_base" }
%"struct.std::_Vector_base" = type { %"struct.std::_Vector_base<DFSRndNumGenerator::SearchState *, std::allocator<DFSRndNumGenerator::SearchState *>>::_Vector_impl" }
%"struct.std::_Vector_base<DFSRndNumGenerator::SearchState *, std::allocator<DFSRndNumGenerator::SearchState *>>::_Vector_impl" = type { %"struct.std::_Vector_base<DFSRndNumGenerator::SearchState *, std::allocator<DFSRndNumGenerator::SearchState *>>::_Vector_impl_data" }
%"struct.std::_Vector_base<DFSRndNumGenerator::SearchState *, std::allocator<DFSRndNumGenerator::SearchState *>>::_Vector_impl_data" = type { ptr, ptr, ptr }

@_ZN5Error8r_error_E = external global i32, align 4

; Function Attrs: mustprogress nounwind uwtable
define linkonce_odr dso_local void @_ZN18DFSRndNumGenerator11SearchState8set_initEb(ptr noundef nonnull align 4 dereferenceable(16) %0, i1 noundef zeroext %1) #4 comdat align 2 {
  %3 = alloca ptr, align 8
  %4 = alloca i8, align 1
  store ptr %0, ptr %3, align 8
  %5 = zext i1 %1 to i8
  store i8 %5, ptr %4, align 1
  %6 = load ptr, ptr %3, align 8
  %7 = load i8, ptr %4, align 1
  %8 = trunc i8 %7 to i1
  %9 = getelementptr inbounds %"class.DFSRndNumGenerator::SearchState", ptr %6, i32 0, i32 0
  %10 = zext i1 %8 to i8
  store i8 %10, ptr %9, align 4
  ret void
}

; Function Attrs: mustprogress nounwind uwtable
define linkonce_odr dso_local noundef nonnull align 8 dereferenceable(8) ptr @_ZNSt6vectorIPN18DFSRndNumGenerator11SearchStateESaIS2_EEixEm(ptr noundef nonnull align 8 dereferenceable(24) %0, i64 noundef %1) #4 comdat align 2 {
  %3 = alloca ptr, align 8
  %4 = alloca i64, align 8
  store ptr %0, ptr %3, align 8
  store i64 %1, ptr %4, align 8
  %5 = load ptr, ptr %3, align 8
  %6 = getelementptr inbounds %"struct.std::_Vector_base", ptr %5, i32 0, i32 0
  %7 = getelementptr inbounds %"struct.std::_Vector_base<DFSRndNumGenerator::SearchState *, std::allocator<DFSRndNumGenerator::SearchState *>>::_Vector_impl_data", ptr %6, i32 0, i32 0
  %8 = load ptr, ptr %7, align 8
  %9 = load i64, ptr %4, align 8
  %10 = getelementptr inbounds ptr, ptr %8, i64 %9
  ret ptr %10
}

; Function Attrs: mustprogress nounwind uwtable
define linkonce_odr dso_local void @_ZN5Error9set_errorEi(i32 noundef %0) #4 comdat align 2 {
  %2 = alloca i32, align 4
  store i32 %0, ptr %2, align 4
  %3 = load i32, ptr %2, align 4
  store i32 %3, ptr @_ZN5Error8r_error_E, align 4
  ret void
}

; Function Attrs: mustprogress uwtable
define dso_local noundef zeroext i1 @_ZN18DFSRndNumGenerator18eager_backtrackingEi(ptr noundef nonnull align 8 dereferenceable(96) %0, i32 noundef %1) #5 align 2 {
  %3 = alloca i1, align 1
  %4 = alloca ptr, align 8
  %5 = alloca i32, align 4
  %6 = alloca i32, align 4
  %7 = alloca i32, align 4
  %8 = alloca i32, align 4
  store ptr %0, ptr %4, align 8
  store i32 %1, ptr %5, align 4
  %9 = load ptr, ptr %4, align 8
  %10 = getelementptr inbounds %class.DFSRndNumGenerator, ptr %9, i32 0, i32 3
  %11 = load i32, ptr %10, align 4
  %12 = icmp sle i32 %11, 0
  br i1 %12, label %13, label %14

13:                                               ; preds = %2
  store i1 false, ptr %3, align 1
  br label %52

14:                                               ; preds = %2
  %15 = call noundef i32 @_ZN9CGOptions20max_exhaustive_depthEv()
  store i32 %15, ptr %6, align 4
  %16 = load i32, ptr %6, align 4
  %17 = getelementptr inbounds %class.DFSRndNumGenerator, ptr %9, i32 0, i32 3
  %18 = load i32, ptr %17, align 4
  %19 = sub nsw i32 %16, %18
  store i32 %19, ptr %7, align 4
  %20 = load i32, ptr %7, align 4
  %21 = load i32, ptr %5, align 4
  %22 = icmp sge i32 %20, %21
  br i1 %22, label %23, label %24

23:                                               ; preds = %14
  store i1 false, ptr %3, align 1
  br label %52

24:                                               ; preds = %14
  %25 = getelementptr inbounds %class.DFSRndNumGenerator, ptr %9, i32 0, i32 3
  %26 = load i32, ptr %25, align 4
  %27 = getelementptr inbounds %class.DFSRndNumGenerator, ptr %9, i32 0, i32 2
  %28 = load i32, ptr %27, align 8
  %29 = icmp sgt i32 %26, %28
  br i1 %29, label %30, label %31

30:                                               ; preds = %24
  call void @_ZN5Error9set_errorEi(i32 noundef -4)
  store i1 true, ptr %3, align 1
  br label %52

31:                                               ; preds = %24
  %32 = getelementptr inbounds %class.DFSRndNumGenerator, ptr %9, i32 0, i32 3
  %33 = load i32, ptr %32, align 4
  %34 = getelementptr inbounds %class.DFSRndNumGenerator, ptr %9, i32 0, i32 2
  store i32 %33, ptr %34, align 8
  %35 = getelementptr inbounds %class.DFSRndNumGenerator, ptr %9, i32 0, i32 3
  %36 = load i32, ptr %35, align 4
  %37 = add nsw i32 %36, 1
  store i32 %37, ptr %8, align 4
  br label %38

38:                                               ; preds = %48, %31
  %39 = load i32, ptr %8, align 4
  %40 = load i32, ptr %6, align 4
  %41 = icmp slt i32 %39, %40
  br i1 %41, label %42, label %51

42:                                               ; preds = %38
  %43 = getelementptr inbounds %class.DFSRndNumGenerator, ptr %9, i32 0, i32 7
  %44 = load i32, ptr %8, align 4
  %45 = sext i32 %44 to i64
  %46 = call noundef nonnull align 8 dereferenceable(8) ptr @_ZNSt6vectorIPN18DFSRndNumGenerator11SearchStateESaIS2_EEixEm(ptr noundef nonnull align 8 dereferenceable(24) %43, i64 noundef %45) #3
  %47 = load ptr, ptr %46, align 8
  call void @_ZN18DFSRndNumGenerator11SearchState8set_initEb(ptr noundef nonnull align 4 dereferenceable(16) %47, i1 noundef zeroext false)
  br label %48

48:                                               ; preds = %42
  %49 = load i32, ptr %8, align 4
  %50 = add nsw i32 %49, 1
  store i32 %50, ptr %8, align 4
  br label %38, !llvm.loop !11

51:                                               ; preds = %38
  call void @_ZN5Error9set_errorEi(i32 noundef -4)
  store i1 true, ptr %3, align 1
  br label %52

52:                                               ; preds = %51, %30, %23, %13
  %53 = load i1, ptr %3, align 1
  ret i1 %53
}