; Function Attrs: mustprogress uwtable
define dso_local noundef zeroext i1 @_ZN18DFSRndNumGenerator18eager_backtrackingEi(ptr nocapture noundef nonnull align 8 dereferenceable(96) %0, i32 noundef %1) local_unnamed_addr #6 align 2 {
  %3 = getelementptr inbounds i8, ptr %0, i64 44
  %4 = load i32, ptr %3, align 4
  %5 = icmp slt i32 %4, 1
  br i1 %5, label %22, label %6

6:                                                ; preds = %2
  %7 = tail call noundef i32 @_ZN9CGOptions20max_exhaustive_depthEv()
  %8 = load i32, ptr %3, align 4
  %9 = sub nsw i32 %7, %8
  %.not = icmp slt i32 %9, %1
  br i1 %.not, label %10, label %22

10:                                               ; preds = %6
  %11 = getelementptr inbounds i8, ptr %0, i64 40
  %12 = load i32, ptr %11, align 8
  %13 = icmp sgt i32 %8, %12
  br i1 %13, label %.sink.split, label %14

14:                                               ; preds = %10
  store i32 %8, ptr %11, align 8
  %.010 = add nsw i32 %8, 1
  %15 = icmp slt i32 %.010, %7
  br i1 %15, label %.lr.ph, label %.sink.split

.lr.ph:                                           ; preds = %14
  %16 = getelementptr inbounds i8, ptr %0, i64 72
  %17 = sext i32 %.010 to i64
  br label %18

18:                                               ; preds = %.lr.ph, %18
  %indvars.iv = phi i64 [ %17, %.lr.ph ], [ %indvars.iv.next, %18 ]
  %19 = load ptr, ptr %16, align 8
  %20 = getelementptr inbounds ptr, ptr %19, i64 %indvars.iv
  %21 = load ptr, ptr %20, align 8
  store i8 0, ptr %21, align 4
  %indvars.iv.next = add nsw i64 %indvars.iv, 1
  %lftr.wideiv = trunc i64 %indvars.iv.next to i32
  %exitcond.not = icmp eq i32 %7, %lftr.wideiv
  br i1 %exitcond.not, label %.sink.split, label %18, !llvm.loop !10

.sink.split:                                      ; preds = %18, %14, %10
  store i32 -4, ptr @_ZN5Error8r_error_E, align 4
  br label %22

22:                                               ; preds = %.sink.split, %6, %2
  %.08 = phi i1 [ false, %2 ], [ false, %6 ], [ true, %.sink.split ]
  ret i1 %.08
}